; Function Attrs: mustprogress uwtable
define hidden noundef zeroext i1 @_ZN6spacer9is_clauseER11ast_managerP4expr(ptr noundef nonnull align 8 dereferenceable(976) %m, ptr noundef %n) local_unnamed_addr #3 {
entry:
  %call.i = tail call noundef zeroext i1 @_ZN6spacer7is_atomER11ast_managerP4expr(ptr noundef nonnull align 8 dereferenceable(976) %m, ptr noundef %n)
  br i1 %call.i, label %return, label %lor.rhs.i

lor.rhs.i:                                        ; preds = %entry
  %m_kind.i.i.i.i = getelementptr inbounds i8, ptr %n, i64 4
  %bf.load.i.i.i.i = load i32, ptr %m_kind.i.i.i.i, align 4
  %bf.clear.i.i.i.i = and i32 %bf.load.i.i.i.i, 65535
  %cmp.i.i.i = icmp eq i32 %bf.clear.i.i.i.i, 0
  br i1 %cmp.i.i.i, label %land.rhs.i.i.i, label %if.end

land.rhs.i.i.i:                                   ; preds = %lor.rhs.i
  %m_decl.i.i.i.i = getelementptr inbounds i8, ptr %n, i64 16
  %0 = load ptr, ptr %m_decl.i.i.i.i, align 8
  %m_info.i.i.i.i.i = getelementptr inbounds i8, ptr %0, i64 24
  %1 = load ptr, ptr %m_info.i.i.i.i.i, align 8
  %tobool.not.i.i.i.i.i = icmp eq ptr %1, null
  br i1 %tobool.not.i.i.i.i.i, label %if.end, label %_ZNK11ast_manager6is_notEPK4expr.exit.i

_ZNK11ast_manager6is_notEPK4expr.exit.i:          ; preds = %land.rhs.i.i.i
  %2 = load i32, ptr %1, align 8
  %cmp.i.i.i.i.i.i = icmp eq i32 %2, 0
  %m_kind.i.i.i.i.i.i = getelementptr inbounds i8, ptr %1, i64 4
  %3 = load i32, ptr %m_kind.i.i.i.i.i.i, align 4
  %cmp2.i.i.i.i.i.i = icmp eq i32 %3, 8
  %4 = select i1 %cmp.i.i.i.i.i.i, i1 %cmp2.i.i.i.i.i.i, i1 false
  br i1 %4, label %_ZN6spacer10is_literalER11ast_managerP4expr.exit, label %if.end

_ZN6spacer10is_literalER11ast_managerP4expr.exit: ; preds = %_ZNK11ast_manager6is_notEPK4expr.exit.i
  %m_args.i.i = getelementptr inbounds i8, ptr %n, i64 32
  %5 = load ptr, ptr %m_args.i.i, align 8
  %call4.i = tail call noundef zeroext i1 @_ZN6spacer7is_atomER11ast_managerP4expr(ptr noundef nonnull align 8 dereferenceable(976) %m, ptr noundef %5)
  br i1 %call4.i, label %return, label %_ZN6spacer10is_literalER11ast_managerP4expr.exit.if.end_crit_edge

_ZN6spacer10is_literalER11ast_managerP4expr.exit.if.end_crit_edge: ; preds = %_ZN6spacer10is_literalER11ast_managerP4expr.exit
  %bf.load.i.i.i.pre = load i32, ptr %m_kind.i.i.i.i, align 4
  br label %if.end

if.end:                                           ; preds = %_ZN6spacer10is_literalER11ast_managerP4expr.exit.if.end_crit_edge, %land.rhs.i.i.i, %lor.rhs.i, %_ZNK11ast_manager6is_notEPK4expr.exit.i
  %bf.load.i.i.i = phi i32 [ %bf.load.i.i.i.pre, %_ZN6spacer10is_literalER11ast_managerP4expr.exit.if.end_crit_edge ], [ %bf.load.i.i.i.i, %land.rhs.i.i.i ], [ %bf.load.i.i.i.i, %lor.rhs.i ], [ %bf.load.i.i.i.i, %_ZNK11ast_manager6is_notEPK4expr.exit.i ]
  %bf.clear.i.i.i = and i32 %bf.load.i.i.i, 65535
  %cmp.i.i = icmp eq i32 %bf.clear.i.i.i, 0
  br i1 %cmp.i.i, label %land.rhs.i.i, label %return

land.rhs.i.i:                                     ; preds = %if.end
  %m_decl.i.i.i = getelementptr inbounds i8, ptr %n, i64 16
  %6 = load ptr, ptr %m_decl.i.i.i, align 8
  %m_info.i.i.i.i = getelementptr inbounds i8, ptr %6, i64 24
  %7 = load ptr, ptr %m_info.i.i.i.i, align 8
  %tobool.not.i.i.i.i = icmp eq ptr %7, null
  br i1 %tobool.not.i.i.i.i, label %return, label %_ZNK11ast_manager5is_orEPK4expr.exit

_ZNK11ast_manager5is_orEPK4expr.exit:             ; preds = %land.rhs.i.i
  %8 = load i32, ptr %7, align 8
  %cmp.i.i.i.i.i = icmp eq i32 %8, 0
  %m_kind.i.i.i.i.i = getelementptr inbounds i8, ptr %7, i64 4
  %9 = load i32, ptr %m_kind.i.i.i.i.i, align 4
  %cmp2.i.i.i.i.i = icmp eq i32 %9, 6
  %10 = select i1 %cmp.i.i.i.i.i, i1 %cmp2.i.i.i.i.i, i1 false
  br i1 %10, label %if.then2, label %return

if.then2:                                         ; preds = %_ZNK11ast_manager5is_orEPK4expr.exit
  %m_num_args.i = getelementptr inbounds i8, ptr %n, i64 24
  %11 = load i32, ptr %m_num_args.i, align 8
  %cmp.not = icmp eq i32 %11, 0
  br i1 %cmp.not, label %return, label %for.body

for.body:                                         ; preds = %if.then2
  %m_args.i.ptr = getelementptr inbounds i8, ptr %n, i64 32
  %12 = load ptr, ptr %m_args.i.ptr, align 8
  %call.i8 = tail call noundef zeroext i1 @_ZN6spacer7is_atomER11ast_managerP4expr(ptr noundef nonnull align 8 dereferenceable(976) %m, ptr noundef %12)
  br i1 %call.i8, label %return, label %lor.rhs.i9

lor.rhs.i9:                                       ; preds = %for.body
  %m_kind.i.i.i.i10 = getelementptr inbounds i8, ptr %12, i64 4
  %bf.load.i.i.i.i11 = load i32, ptr %m_kind.i.i.i.i10, align 4
  %bf.clear.i.i.i.i12 = and i32 %bf.load.i.i.i.i11, 65535
  %cmp.i.i.i13 = icmp eq i32 %bf.clear.i.i.i.i12, 0
  br i1 %cmp.i.i.i13, label %land.rhs.i.i.i14, label %return

land.rhs.i.i.i14:                                 ; preds = %lor.rhs.i9
  %m_decl.i.i.i.i15 = getelementptr inbounds i8, ptr %12, i64 16
  %13 = load ptr, ptr %m_decl.i.i.i.i15, align 8
  %m_info.i.i.i.i.i16 = getelementptr inbounds i8, ptr %13, i64 24
  %14 = load ptr, ptr %m_info.i.i.i.i.i16, align 8
  %tobool.not.i.i.i.i.i17 = icmp eq ptr %14, null
  br i1 %tobool.not.i.i.i.i.i17, label %return, label %_ZNK11ast_manager6is_notEPK4expr.exit.i18

_ZNK11ast_manager6is_notEPK4expr.exit.i18:        ; preds = %land.rhs.i.i.i14
  %15 = load i32, ptr %14, align 8
  %cmp.i.i.i.i.i.i19 = icmp eq i32 %15, 0
  %m_kind.i.i.i.i.i.i20 = getelementptr inbounds i8, ptr %14, i64 4
  %16 = load i32, ptr %m_kind.i.i.i.i.i.i20, align 4
  %cmp2.i.i.i.i.i.i21 = icmp eq i32 %16, 8
  %17 = select i1 %cmp.i.i.i.i.i.i19, i1 %cmp2.i.i.i.i.i.i21, i1 false
  br i1 %17, label %land.rhs.i22, label %return

land.rhs.i22:                                     ; preds = %_ZNK11ast_manager6is_notEPK4expr.exit.i18
  %m_args.i.i23 = getelementptr inbounds i8, ptr %12, i64 32
  %18 = load ptr, ptr %m_args.i.i23, align 8
  %call4.i24 = tail call noundef zeroext i1 @_ZN6spacer7is_atomER11ast_managerP4expr(ptr noundef nonnull align 8 dereferenceable(976) %m, ptr noundef %18)
  br label %return

return:                                           ; preds = %land.rhs.i.i, %if.end, %entry, %land.rhs.i22, %_ZNK11ast_manager6is_notEPK4expr.exit.i18, %land.rhs.i.i.i14, %lor.rhs.i9, %for.body, %_ZNK11ast_manager5is_orEPK4expr.exit, %if.then2, %_ZN6spacer10is_literalER11ast_managerP4expr.exit
  %retval.0 = phi i1 [ true, %_ZN6spacer10is_literalER11ast_managerP4expr.exit ], [ false, %if.then2 ], [ false, %_ZNK11ast_manager5is_orEPK4expr.exit ], [ true, %for.body ], [ false, %_ZNK11ast_manager6is_notEPK4expr.exit.i18 ], [ %call4.i24, %land.rhs.i22 ], [ false, %lor.rhs.i9 ], [ false, %land.rhs.i.i.i14 ], [ true, %entry ], [ false, %if.end ], [ false, %land.rhs.i.i ]
  ret i1 %retval.0
}